target datalayout = "e-m:e-p270:32:32-p271:32:32-p272:64:64-i64:64-i128:128-f80:128-n8:16:32:64-S128"
target triple = "x86_64-pc-linux-gnu"

%struct.Int2_Man_t_ = type { ptr, ptr, ptr, ptr }
%struct.Gia_Man_t_ = type { ptr, ptr, i32, i32, i32, i32, ptr, ptr, i32, i32, i32, ptr, ptr, %struct.Vec_Int_t_, %struct.Vec_Int_t_, i32, i32, i32, %struct.Vec_Int_t_, ptr, ptr, ptr, i32, i32, i32, i32, ptr, ptr, ptr, ptr, ptr, i32, i32, ptr, i32, ptr, ptr, ptr, ptr, ptr, ptr, ptr, ptr, ptr, ptr, ptr, ptr, ptr, ptr, ptr, ptr, ptr, ptr, %struct.Vec_Int_t_, %struct.Vec_Int_t_, ptr, ptr, ptr, ptr, ptr, ptr, ptr, ptr, ptr, ptr, ptr, ptr, ptr, ptr, ptr, ptr, ptr, ptr, ptr, ptr, ptr, i32, float, float, ptr, ptr, i32, ptr, ptr, ptr, ptr, ptr, ptr, ptr, ptr, ptr, ptr, ptr, ptr, ptr, ptr, ptr, i64, i64, ptr, ptr, i32, i32, i32, i32, i32, i32, i32, i32, i32, i32, i32, i32, ptr, ptr, ptr, ptr, ptr, ptr, ptr, ptr, i32, i32, i32, ptr, i32, i32, ptr, ptr, ptr, ptr, ptr, ptr, i32, i32, ptr, %struct.Vec_Int_t_, %struct.Vec_Int_t_, %struct.Vec_Int_t_, ptr, ptr, ptr, i32, i32, i32, i32, ptr, ptr, ptr, ptr, ptr }
%struct.Vec_Int_t_ = type { i32, i32, ptr }
%struct.sat_solver2_t = type { i32, i32, i32, i32, i32, double, double, i32, i32, i32, i32, ptr, ptr, i32, i32, i32, i32, i32, i32, i32, i32, i32, i32, i32, %struct.Sat_Mem_t_, ptr, %struct.veci_t, %struct.veci_t, i32, i32, i32, ptr, ptr, ptr, ptr, ptr, ptr, ptr, ptr, %struct.veci_t, %struct.veci_t, %struct.veci_t, %struct.veci_t, %struct.veci_t, %struct.veci_t, %struct.veci_t, %struct.veci_t, %struct.veci_t, %struct.veci_t, ptr, %struct.veci_t, i32, i32, ptr, double, ptr, i32, %struct.stats_t, i64, i64, i64 }
%struct.Sat_Mem_t_ = type { [2 x i32], [2 x i32], [2 x i32], [2 x i32], i32, i32, i32, i32, ptr }
%struct.veci_t = type { i32, i32, ptr }
%struct.stats_t = type { i32, i32, i32, i64, i64, i64, i64, i64, i64, i64 }
%struct.clause_t = type { i32, [0 x i32] }
%struct.Gia_Obj_t_ = type <{ i64, i32 }>

; Function Attrs: inlinehint nounwind uwtable
define internal ptr @Gia_ManObj(ptr noundef %0, i32 noundef %1) #3 {
  %3 = alloca ptr, align 8
  %4 = alloca i32, align 4
  store ptr %0, ptr %3, align 8, !tbaa !47
  store i32 %1, ptr %4, align 4, !tbaa !10
  %5 = load ptr, ptr %3, align 8, !tbaa !47
  %6 = getelementptr inbounds nuw %struct.Gia_Man_t_, ptr %5, i32 0, i32 6
  %7 = load ptr, ptr %6, align 8, !tbaa !69
  %8 = load i32, ptr %4, align 4, !tbaa !10
  %9 = sext i32 %8 to i64
  %10 = getelementptr inbounds %struct.Gia_Obj_t_, ptr %7, i64 %9
  ret ptr %10
}

; Function Attrs: inlinehint nounwind uwtable
define internal i32 @Abc_Var2Lit(i32 noundef %0, i32 noundef %1) #3 {
  %3 = alloca i32, align 4
  %4 = alloca i32, align 4
  store i32 %0, ptr %3, align 4, !tbaa !10
  store i32 %1, ptr %4, align 4, !tbaa !10
  %5 = load i32, ptr %3, align 4, !tbaa !10
  %6 = load i32, ptr %3, align 4, !tbaa !10
  %7 = add nsw i32 %5, %6
  %8 = load i32, ptr %4, align 4, !tbaa !10
  %9 = add nsw i32 %7, %8
  ret i32 %9
}

; Function Attrs: inlinehint nounwind uwtable
define internal i32 @Abc_LitIsCompl(i32 noundef %0) #3 {
  %2 = alloca i32, align 4
  store i32 %0, ptr %2, align 4, !tbaa !10
  %3 = load i32, ptr %2, align 4, !tbaa !10
  %4 = and i32 %3, 1
  ret i32 %4
}

; Function Attrs: inlinehint nounwind uwtable
define internal i32 @Gia_ObjId(ptr noundef %0, ptr noundef %1) #3 {
  %3 = alloca ptr, align 8
  %4 = alloca ptr, align 8
  store ptr %0, ptr %3, align 8, !tbaa !47
  store ptr %1, ptr %4, align 8, !tbaa !48
  %5 = load ptr, ptr %4, align 8, !tbaa !48
  %6 = load ptr, ptr %3, align 8, !tbaa !47
  %7 = getelementptr inbounds nuw %struct.Gia_Man_t_, ptr %6, i32 0, i32 6
  %8 = load ptr, ptr %7, align 8, !tbaa !69
  %9 = ptrtoint ptr %5 to i64
  %10 = ptrtoint ptr %8 to i64
  %11 = sub i64 %9, %10
  %12 = sdiv exact i64 %11, 12
  %13 = trunc i64 %12 to i32
  ret i32 %13
}

; Function Attrs: inlinehint nounwind uwtable
define internal ptr @Gia_ManCi(ptr noundef %0, i32 noundef %1) #3 {
  %3 = alloca ptr, align 8
  %4 = alloca i32, align 4
  store ptr %0, ptr %3, align 8, !tbaa !47
  store i32 %1, ptr %4, align 4, !tbaa !10
  %5 = load ptr, ptr %3, align 8, !tbaa !47
  %6 = load ptr, ptr %3, align 8, !tbaa !47
  %7 = getelementptr inbounds nuw %struct.Gia_Man_t_, ptr %6, i32 0, i32 11
  %8 = load ptr, ptr %7, align 8, !tbaa !49
  %9 = load i32, ptr %4, align 4, !tbaa !10
  %10 = call i32 @Vec_IntEntry(ptr noundef %8, i32 noundef %9)
  %11 = call ptr @Gia_ManObj(ptr noundef %5, i32 noundef %10)
  ret ptr %11
}

; Function Attrs: inlinehint nounwind uwtable
define internal i32 @Vec_IntEntry(ptr noundef %0, i32 noundef %1) #3 {
  %3 = alloca ptr, align 8
  %4 = alloca i32, align 4
  store ptr %0, ptr %3, align 8, !tbaa !41
  store i32 %1, ptr %4, align 4, !tbaa !10
  %5 = load ptr, ptr %3, align 8, !tbaa !41
  %6 = getelementptr inbounds nuw %struct.Vec_Int_t_, ptr %5, i32 0, i32 2
  %7 = load ptr, ptr %6, align 8, !tbaa !44
  %8 = load i32, ptr %4, align 4, !tbaa !10
  %9 = sext i32 %8 to i64
  %10 = getelementptr inbounds i32, ptr %7, i64 %9
  %11 = load i32, ptr %10, align 4, !tbaa !10
  ret i32 %11
}

; Function Attrs: inlinehint nounwind uwtable
define internal i32 @Vec_IntSize(ptr noundef %0) #3 {
  %2 = alloca ptr, align 8
  store ptr %0, ptr %2, align 8, !tbaa !41
  %3 = load ptr, ptr %2, align 8, !tbaa !41
  %4 = getelementptr inbounds nuw %struct.Vec_Int_t_, ptr %3, i32 0, i32 1
  %5 = load i32, ptr %4, align 4, !tbaa !42
  ret i32 %5
}

; Function Attrs: inlinehint nounwind uwtable
define internal i32 @Abc_Lit2Var(i32 noundef %0) #3 {
  %2 = alloca i32, align 4
  store i32 %0, ptr %2, align 4, !tbaa !10
  %3 = load i32, ptr %2, align 4, !tbaa !10
  %4 = ashr i32 %3, 1
  ret i32 %4
}

; Function Attrs: inlinehint nounwind uwtable
define internal i32 @clause_id(ptr noundef %0) #3 {
  %2 = alloca ptr, align 8
  store ptr %0, ptr %2, align 8, !tbaa !64
  %3 = load ptr, ptr %2, align 8, !tbaa !64
  %4 = getelementptr inbounds nuw %struct.clause_t, ptr %3, i32 0, i32 1
  %5 = load ptr, ptr %2, align 8, !tbaa !64
  %6 = load i32, ptr %5, align 4
  %7 = lshr i32 %6, 11
  %8 = zext i32 %7 to i64
  %9 = getelementptr inbounds nuw [0 x i32], ptr %4, i64 0, i64 %8
  %10 = load i32, ptr %9, align 4, !tbaa !10
  ret i32 %10
}

; Function Attrs: inlinehint nounwind uwtable
define internal ptr @veci_begin(ptr noundef %0) #3 {
  %2 = alloca ptr, align 8
  store ptr %0, ptr %2, align 8, !tbaa !67
  %3 = load ptr, ptr %2, align 8, !tbaa !67
  %4 = getelementptr inbounds nuw %struct.veci_t, ptr %3, i32 0, i32 2
  %5 = load ptr, ptr %4, align 8, !tbaa !68
  ret ptr %5
}

; Function Attrs: nounwind uwtable
define i32 @Int2_ManChainStart(ptr noundef %0, ptr noundef %1) #0 {
  %3 = alloca i32, align 4
  %4 = alloca ptr, align 8
  %5 = alloca ptr, align 8
  %6 = alloca i32, align 4
  %7 = alloca i32, align 4
  %8 = alloca i32, align 4
  %9 = alloca i32, align 4
  store ptr %0, ptr %4, align 8, !tbaa !12
  store ptr %1, ptr %5, align 8, !tbaa !64
  %10 = load ptr, ptr %5, align 8, !tbaa !64
  %11 = load i32, ptr %10, align 4
  %12 = and i32 %11, 1
  %13 = icmp ne i32 %12, 0
  br i1 %13, label %14, label %25

14:                                               ; preds = %2
  %15 = load ptr, ptr %4, align 8, !tbaa !12
  %16 = getelementptr inbounds nuw %struct.Int2_Man_t_, ptr %15, i32 0, i32 0
  %17 = load ptr, ptr %16, align 8, !tbaa !14
  %18 = getelementptr inbounds nuw %struct.sat_solver2_t, ptr %17, i32 0, i32 27
  %19 = call ptr @veci_begin(ptr noundef %18)
  %20 = load ptr, ptr %5, align 8, !tbaa !64
  %21 = call i32 @clause_id(ptr noundef %20)
  %22 = sext i32 %21 to i64
  %23 = getelementptr inbounds i32, ptr %19, i64 %22
  %24 = load i32, ptr %23, align 4, !tbaa !10
  store i32 %24, ptr %3, align 4
  br label %123

25:                                               ; preds = %2
  %26 = load ptr, ptr %5, align 8, !tbaa !64
  %27 = load i32, ptr %26, align 4
  %28 = lshr i32 %27, 2
  %29 = and i32 %28, 1
  %30 = icmp ne i32 %29, 0
  br i1 %30, label %32, label %31

31:                                               ; preds = %25
  store i32 1, ptr %3, align 4
  br label %123

32:                                               ; preds = %25
  %33 = load ptr, ptr %5, align 8, !tbaa !64
  %34 = getelementptr inbounds nuw %struct.clause_t, ptr %33, i32 0, i32 1
  %35 = load ptr, ptr %5, align 8, !tbaa !64
  %36 = load i32, ptr %35, align 4
  %37 = lshr i32 %36, 11
  %38 = zext i32 %37 to i64
  %39 = getelementptr inbounds nuw [0 x i32], ptr %34, i64 0, i64 %38
  %40 = load i32, ptr %39, align 4, !tbaa !10
  %41 = icmp slt i32 %40, 0
  br i1 %41, label %42, label %114

42:                                               ; preds = %32
  call void @llvm.lifetime.start.p0(i64 4, ptr %6) #13
  call void @llvm.lifetime.start.p0(i64 4, ptr %7) #13
  call void @llvm.lifetime.start.p0(i64 4, ptr %8) #13
  call void @llvm.lifetime.start.p0(i64 4, ptr %9) #13
  store i32 0, ptr %9, align 4, !tbaa !10
  store i32 0, ptr %6, align 4, !tbaa !10
  br label %43

43:                                               ; preds = %102, %42
  %44 = load i32, ptr %6, align 4, !tbaa !10
  %45 = load ptr, ptr %5, align 8, !tbaa !64
  %46 = load i32, ptr %45, align 4
  %47 = lshr i32 %46, 11
  %48 = icmp slt i32 %44, %47
  br i1 %48, label %49, label %105

49:                                               ; preds = %43
  %50 = load ptr, ptr %5, align 8, !tbaa !64
  %51 = getelementptr inbounds nuw %struct.clause_t, ptr %50, i32 0, i32 1
  %52 = load i32, ptr %6, align 4, !tbaa !10
  %53 = sext i32 %52 to i64
  %54 = getelementptr inbounds [0 x i32], ptr %51, i64 0, i64 %53
  %55 = load i32, ptr %54, align 4, !tbaa !10
  %56 = call i32 @Abc_Lit2Var(i32 noundef %55)
  %57 = load ptr, ptr %4, align 8, !tbaa !12
  %58 = getelementptr inbounds nuw %struct.Int2_Man_t_, ptr %57, i32 0, i32 2
  %59 = load ptr, ptr %58, align 8, !tbaa !19
  %60 = call i32 @Vec_IntSize(ptr noundef %59)
  %61 = icmp sge i32 %56, %60
  br i1 %61, label %62, label %63

62:                                               ; preds = %49
  br label %102

63:                                               ; preds = %49
  %64 = load ptr, ptr %4, align 8, !tbaa !12
  %65 = getelementptr inbounds nuw %struct.Int2_Man_t_, ptr %64, i32 0, i32 2
  %66 = load ptr, ptr %65, align 8, !tbaa !19
  %67 = load ptr, ptr %5, align 8, !tbaa !64
  %68 = getelementptr inbounds nuw %struct.clause_t, ptr %67, i32 0, i32 1
  %69 = load i32, ptr %6, align 4, !tbaa !10
  %70 = sext i32 %69 to i64
  %71 = getelementptr inbounds [0 x i32], ptr %68, i64 0, i64 %70
  %72 = load i32, ptr %71, align 4, !tbaa !10
  %73 = call i32 @Abc_Lit2Var(i32 noundef %72)
  %74 = call i32 @Vec_IntEntry(ptr noundef %66, i32 noundef %73)
  store i32 %74, ptr %7, align 4, !tbaa !10
  %75 = load i32, ptr %7, align 4, !tbaa !10
  %76 = icmp slt i32 %75, 0
  br i1 %76, label %77, label %78

77:                                               ; preds = %63
  br label %102

78:                                               ; preds = %63
  %79 = load ptr, ptr %4, align 8, !tbaa !12
  %80 = getelementptr inbounds nuw %struct.Int2_Man_t_, ptr %79, i32 0, i32 3
  %81 = load ptr, ptr %80, align 8, !tbaa !20
  %82 = load ptr, ptr %4, align 8, !tbaa !12
  %83 = getelementptr inbounds nuw %struct.Int2_Man_t_, ptr %82, i32 0, i32 3
  %84 = load ptr, ptr %83, align 8, !tbaa !20
  %85 = load i32, ptr %7, align 4, !tbaa !10
  %86 = call ptr @Gia_ManCi(ptr noundef %84, i32 noundef %85)
  %87 = call i32 @Gia_ObjId(ptr noundef %81, ptr noundef %86)
  store i32 %87, ptr %8, align 4, !tbaa !10
  %88 = load ptr, ptr %4, align 8, !tbaa !12
  %89 = getelementptr inbounds nuw %struct.Int2_Man_t_, ptr %88, i32 0, i32 3
  %90 = load ptr, ptr %89, align 8, !tbaa !20
  %91 = load i32, ptr %9, align 4, !tbaa !10
  %92 = load i32, ptr %8, align 4, !tbaa !10
  %93 = load ptr, ptr %5, align 8, !tbaa !64
  %94 = getelementptr inbounds nuw %struct.clause_t, ptr %93, i32 0, i32 1
  %95 = load i32, ptr %6, align 4, !tbaa !10
  %96 = sext i32 %95 to i64
  %97 = getelementptr inbounds [0 x i32], ptr %94, i64 0, i64 %96
  %98 = load i32, ptr %97, align 4, !tbaa !10
  %99 = call i32 @Abc_LitIsCompl(i32 noundef %98)
  %100 = call i32 @Abc_Var2Lit(i32 noundef %92, i32 noundef %99)
  %101 = call i32 @Gia_ManHashOr(ptr noundef %90, i32 noundef %91, i32 noundef %100)
  store i32 %101, ptr %9, align 4, !tbaa !10
  br label %102

102:                                              ; preds = %78, %77, %62
  %103 = load i32, ptr %6, align 4, !tbaa !10
  %104 = add nsw i32 %103, 1
  store i32 %104, ptr %6, align 4, !tbaa !10
  br label %43, !llvm.loop !66

105:                                              ; preds = %43
  %106 = load i32, ptr %9, align 4, !tbaa !10
  %107 = load ptr, ptr %5, align 8, !tbaa !64
  %108 = getelementptr inbounds nuw %struct.clause_t, ptr %107, i32 0, i32 1
  %109 = load ptr, ptr %5, align 8, !tbaa !64
  %110 = load i32, ptr %109, align 4
  %111 = lshr i32 %110, 11
  %112 = zext i32 %111 to i64
  %113 = getelementptr inbounds nuw [0 x i32], ptr %108, i64 0, i64 %112
  store i32 %106, ptr %113, align 4, !tbaa !10
  call void @llvm.lifetime.end.p0(i64 4, ptr %9) #13
  call void @llvm.lifetime.end.p0(i64 4, ptr %8) #13
  call void @llvm.lifetime.end.p0(i64 4, ptr %7) #13
  call void @llvm.lifetime.end.p0(i64 4, ptr %6) #13
  br label %114

114:                                              ; preds = %105, %32
  %115 = load ptr, ptr %5, align 8, !tbaa !64
  %116 = getelementptr inbounds nuw %struct.clause_t, ptr %115, i32 0, i32 1
  %117 = load ptr, ptr %5, align 8, !tbaa !64
  %118 = load i32, ptr %117, align 4
  %119 = lshr i32 %118, 11
  %120 = zext i32 %119 to i64
  %121 = getelementptr inbounds nuw [0 x i32], ptr %116, i64 0, i64 %120
  %122 = load i32, ptr %121, align 4, !tbaa !10
  store i32 %122, ptr %3, align 4
  br label %123

123:                                              ; preds = %114, %31, %14
  %124 = load i32, ptr %3, align 4
  ret i32 %124
}

; Function Attrs: nounwind uwtable
define i32 @Int2_ManChainResolve(ptr noundef %0, ptr noundef %1, i32 noundef %2, i32 noundef %3) #0 {
  %5 = alloca ptr, align 8
  %6 = alloca ptr, align 8
  %7 = alloca i32, align 4
  %8 = alloca i32, align 4
  %9 = alloca i32, align 4
  store ptr %0, ptr %5, align 8, !tbaa !12
  store ptr %1, ptr %6, align 8, !tbaa !64
  store i32 %2, ptr %7, align 4, !tbaa !10
  store i32 %3, ptr %8, align 4, !tbaa !10
  call void @llvm.lifetime.start.p0(i64 4, ptr %9) #13
  %10 = load ptr, ptr %5, align 8, !tbaa !12
  %11 = load ptr, ptr %6, align 8, !tbaa !64
  %12 = call i32 @Int2_ManChainStart(ptr noundef %10, ptr noundef %11)
  store i32 %12, ptr %9, align 4, !tbaa !10
  %13 = load i32, ptr %8, align 4, !tbaa !10
  %14 = icmp ne i32 %13, 0
  br i1 %14, label %15, label %22

15:                                               ; preds = %4
  %16 = load ptr, ptr %5, align 8, !tbaa !12
  %17 = getelementptr inbounds nuw %struct.Int2_Man_t_, ptr %16, i32 0, i32 3
  %18 = load ptr, ptr %17, align 8, !tbaa !20
  %19 = load i32, ptr %7, align 4, !tbaa !10
  %20 = load i32, ptr %9, align 4, !tbaa !10
  %21 = call i32 @Gia_ManHashOr(ptr noundef %18, i32 noundef %19, i32 noundef %20)
  store i32 %21, ptr %7, align 4, !tbaa !10
  br label %29

22:                                               ; preds = %4
  %23 = load ptr, ptr %5, align 8, !tbaa !12
  %24 = getelementptr inbounds nuw %struct.Int2_Man_t_, ptr %23, i32 0, i32 3
  %25 = load ptr, ptr %24, align 8, !tbaa !20
  %26 = load i32, ptr %7, align 4, !tbaa !10
  %27 = load i32, ptr %9, align 4, !tbaa !10
  %28 = call i32 @Gia_ManHashAnd(ptr noundef %25, i32 noundef %26, i32 noundef %27)
  store i32 %28, ptr %7, align 4, !tbaa !10
  br label %29

29:                                               ; preds = %22, %15
  %30 = load i32, ptr %7, align 4, !tbaa !10
  call void @llvm.lifetime.end.p0(i64 4, ptr %9) #13
  ret i32 %30
}