; Function Attrs: nounwind uwtable
define i32 @Int2_ManChainResolve(ptr noundef readonly captures(none) %0, ptr noundef captures(none) %1, i32 noundef %2, i32 noundef %3) local_unnamed_addr #0 {
  %5 = load i32, ptr %1, align 4
  %6 = and i32 %5, 1
  %.not.i = icmp eq i32 %6, 0
  br i1 %.not.i, label %18, label %7

7:                                                ; preds = %4
  %8 = load ptr, ptr %0, align 8, !tbaa !3
  %9 = getelementptr i8, ptr %8, i64 208
  %.val37.i = load ptr, ptr %9, align 8, !tbaa !59
  %10 = getelementptr inbounds nuw i8, ptr %1, i64 4
  %11 = lshr i32 %5, 11
  %12 = zext nneg i32 %11 to i64
  %13 = getelementptr inbounds nuw [0 x i32], ptr %10, i64 0, i64 %12
  %14 = load i32, ptr %13, align 4, !tbaa !18
  %15 = sext i32 %14 to i64
  %16 = getelementptr inbounds i32, ptr %.val37.i, i64 %15
  %17 = load i32, ptr %16, align 4, !tbaa !18
  br label %Int2_ManChainStart.exit

18:                                               ; preds = %4
  %19 = and i32 %5, 4
  %.not33.i = icmp eq i32 %19, 0
  br i1 %.not33.i, label %Int2_ManChainStart.exit, label %20

20:                                               ; preds = %18
  %21 = getelementptr inbounds nuw i8, ptr %1, i64 4
  %22 = lshr i32 %5, 11
  %23 = zext nneg i32 %22 to i64
  %24 = getelementptr inbounds nuw [0 x i32], ptr %21, i64 0, i64 %23
  %25 = load i32, ptr %24, align 4, !tbaa !18
  %26 = icmp slt i32 %25, 0
  br i1 %26, label %.preheader.i, label %Int2_ManChainStart.exit

.preheader.i:                                     ; preds = %20
  %.not43.i = icmp ult i32 %5, 2048
  br i1 %.not43.i, label %._crit_edge.i, label %.lr.ph.i

.lr.ph.i:                                         ; preds = %.preheader.i
  %27 = getelementptr inbounds nuw i8, ptr %0, i64 16
  %28 = getelementptr inbounds nuw i8, ptr %0, i64 24
  br label %29

29:                                               ; preds = %53, %.lr.ph.i
  %30 = phi i32 [ %5, %.lr.ph.i ], [ %54, %53 ]
  %indvars.iv.i = phi i64 [ 0, %.lr.ph.i ], [ %indvars.iv.next.i, %53 ]
  %.041.i = phi i32 [ 0, %.lr.ph.i ], [ %.1.i, %53 ]
  %31 = getelementptr inbounds nuw [0 x i32], ptr %21, i64 0, i64 %indvars.iv.i
  %32 = load i32, ptr %31, align 4, !tbaa !18
  %33 = ashr i32 %32, 1
  %34 = load ptr, ptr %27, align 8, !tbaa !22
  %35 = getelementptr i8, ptr %34, i64 4
  %.val.i = load i32, ptr %35, align 4, !tbaa !11
  %.not34.i = icmp slt i32 %33, %.val.i
  br i1 %.not34.i, label %36, label %53

36:                                               ; preds = %29
  %37 = getelementptr i8, ptr %34, i64 8
  %.val35.i = load ptr, ptr %37, align 8, !tbaa !16
  %38 = sext i32 %33 to i64
  %39 = getelementptr inbounds i32, ptr %.val35.i, i64 %38
  %40 = load i32, ptr %39, align 4, !tbaa !18
  %41 = icmp slt i32 %40, 0
  br i1 %41, label %53, label %42

42:                                               ; preds = %36
  %43 = load ptr, ptr %28, align 8, !tbaa !23
  %44 = getelementptr i8, ptr %43, i64 64
  %.val39.i = load ptr, ptr %44, align 8, !tbaa !41
  %45 = getelementptr i8, ptr %.val39.i, i64 8
  %.val39.val.i = load ptr, ptr %45, align 8, !tbaa !16
  %46 = zext nneg i32 %40 to i64
  %47 = getelementptr inbounds nuw i32, ptr %.val39.val.i, i64 %46
  %48 = load i32, ptr %47, align 4, !tbaa !18
  %49 = and i32 %32, 1
  %50 = shl nsw i32 %48, 1
  %51 = or disjoint i32 %50, %49
  %52 = tail call i32 @Gia_ManHashOr(ptr noundef %43, i32 noundef %.041.i, i32 noundef %51) #20
  %.pre.i = load i32, ptr %1, align 4
  br label %53

53:                                               ; preds = %42, %36, %29
  %54 = phi i32 [ %30, %29 ], [ %30, %36 ], [ %.pre.i, %42 ]
  %.1.i = phi i32 [ %.041.i, %29 ], [ %.041.i, %36 ], [ %52, %42 ]
  %indvars.iv.next.i = add nuw nsw i64 %indvars.iv.i, 1
  %55 = lshr i32 %54, 11
  %56 = zext nneg i32 %55 to i64
  %57 = icmp samesign ult i64 %indvars.iv.next.i, %56
  br i1 %57, label %29, label %._crit_edge.i, !llvm.loop !60

._crit_edge.i:                                    ; preds = %53, %.preheader.i
  %.pre-phi.i = phi i64 [ %23, %.preheader.i ], [ %56, %53 ]
  %.0.lcssa.i = phi i32 [ 0, %.preheader.i ], [ %.1.i, %53 ]
  %58 = getelementptr inbounds nuw [0 x i32], ptr %21, i64 0, i64 %.pre-phi.i
  store i32 %.0.lcssa.i, ptr %58, align 4, !tbaa !18
  br label %Int2_ManChainStart.exit

Int2_ManChainStart.exit:                          ; preds = %20, %._crit_edge.i, %7, %18
  %.029.i = phi i32 [ %17, %7 ], [ 1, %18 ], [ %.0.lcssa.i, %._crit_edge.i ], [ %25, %20 ]
  %.not = icmp eq i32 %3, 0
  %59 = getelementptr inbounds nuw i8, ptr %0, i64 24
  %60 = load ptr, ptr %59, align 8, !tbaa !23
  br i1 %.not, label %63, label %61

61:                                               ; preds = %Int2_ManChainStart.exit
  %62 = tail call i32 @Gia_ManHashOr(ptr noundef %60, i32 noundef %2, i32 noundef %.029.i) #20
  br label %65

63:                                               ; preds = %Int2_ManChainStart.exit
  %64 = tail call i32 @Gia_ManHashAnd(ptr noundef %60, i32 noundef %2, i32 noundef %.029.i) #20
  br label %65

65:                                               ; preds = %63, %61
  %.0 = phi i32 [ %62, %61 ], [ %64, %63 ]
  ret i32 %.0
}